target datalayout = "e-m:e-p270:32:32-p271:32:32-p272:64:64-i64:64-i128:128-f80:128-n8:16:32:64-S128"
target triple = "x86_64-pc-linux-gnu"

%"class.net::QuicSpdySession" = type <{ %"class.net::QuicSession.base", [4 x i8], %"class.std::unique_ptr", i8, [7 x i8] }>
%"class.net::QuicSession.base" = type <{ %"class.net::QuicConnectionVisitorInterface", %"class.std::map", ptr, %"class.std::vector", %"class.net::QuicConfig", i64, i64, %"class.base::SmallMap", %"class.base::SmallMap.15", i32, [4 x i8], %"class.std::unordered_set", %"class.std::unordered_set", %"class.net::QuicWriteBlockedList", i32, [4 x i8], i64, i64, i64, i32, [4 x i8], %"class.net::QuicFlowController", i32 }>
%"class.net::QuicConnectionVisitorInterface" = type { ptr }
%"class.std::map" = type { %"class.std::_Rb_tree" }
%"class.std::_Rb_tree" = type { %"struct.std::_Rb_tree<unsigned int, std::pair<const unsigned int, unsigned long>, std::_Select1st<std::pair<const unsigned int, unsigned long>>, std::less<unsigned int>>::_Rb_tree_impl" }
%"struct.std::_Rb_tree<unsigned int, std::pair<const unsigned int, unsigned long>, std::_Select1st<std::pair<const unsigned int, unsigned long>>, std::less<unsigned int>>::_Rb_tree_impl" = type { [8 x i8], %"struct.std::_Rb_tree_header" }
%"struct.std::_Rb_tree_header" = type { %"struct.std::_Rb_tree_node_base", i64 }
%"struct.std::_Rb_tree_node_base" = type { i32, ptr, ptr, ptr }
%"class.std::vector" = type { %"struct.std::_Vector_base" }
%"struct.std::_Vector_base" = type { %"struct.std::_Vector_base<net::ReliableQuicStream *, std::allocator<net::ReliableQuicStream *>>::_Vector_impl" }
%"struct.std::_Vector_base<net::ReliableQuicStream *, std::allocator<net::ReliableQuicStream *>>::_Vector_impl" = type { %"struct.std::_Vector_base<net::ReliableQuicStream *, std::allocator<net::ReliableQuicStream *>>::_Vector_impl_data" }
%"struct.std::_Vector_base<net::ReliableQuicStream *, std::allocator<net::ReliableQuicStream *>>::_Vector_impl_data" = type { ptr, ptr, ptr }
%"class.net::QuicConfig" = type { %"class.net::QuicTime::Delta", %"class.net::QuicTime::Delta", i64, %"class.net::QuicFixedTagVector", %"class.net::QuicNegotiableUint32", %"class.net::QuicNegotiableUint32", %"class.net::QuicNegotiableUint32", %"class.net::QuicFixedUint32", %"class.net::QuicFixedUint32", %"class.net::QuicFixedUint32", %"class.net::QuicFixedUint32", %"class.net::QuicFixedUint32", %"class.net::QuicFixedUint32", %"class.net::QuicNegotiableUint32", %"class.net::QuicFixedUint32", %"class.net::QuicFixedIPEndPoint", %"class.net::QuicFixedUint32" }
%"class.net::QuicTime::Delta" = type { %"class.base::TimeDelta", i64 }
%"class.base::TimeDelta" = type { i64 }
%"class.net::QuicFixedTagVector" = type <{ %"class.net::QuicConfigValue", %"class.std::vector.3", i8, [7 x i8], %"class.std::vector.3", i8, [7 x i8] }>
%"class.net::QuicConfigValue" = type { ptr, i32, i32 }
%"class.std::vector.3" = type { %"struct.std::_Vector_base.4" }
%"struct.std::_Vector_base.4" = type { %"struct.std::_Vector_base<unsigned int, std::allocator<unsigned int>>::_Vector_impl" }
%"struct.std::_Vector_base<unsigned int, std::allocator<unsigned int>>::_Vector_impl" = type { %"struct.std::_Vector_base<unsigned int, std::allocator<unsigned int>>::_Vector_impl_data" }
%"struct.std::_Vector_base<unsigned int, std::allocator<unsigned int>>::_Vector_impl_data" = type { ptr, ptr, ptr }
%"class.net::QuicNegotiableUint32" = type { %"class.net::QuicNegotiableValue.base", i32, i32, i32 }
%"class.net::QuicNegotiableValue.base" = type <{ %"class.net::QuicConfigValue", i8 }>
%"class.net::QuicFixedIPEndPoint" = type <{ %"class.net::QuicConfigValue", %"class.net::IPEndPoint", i8, [7 x i8], %"class.net::IPEndPoint", i8, [7 x i8] }>
%"class.net::IPEndPoint" = type <{ %"class.net::IPAddress", i16, [6 x i8] }>
%"class.net::IPAddress" = type { %"class.std::vector.8" }
%"class.std::vector.8" = type { %"struct.std::_Vector_base.9" }
%"struct.std::_Vector_base.9" = type { %"struct.std::_Vector_base<unsigned char, std::allocator<unsigned char>>::_Vector_impl" }
%"struct.std::_Vector_base<unsigned char, std::allocator<unsigned char>>::_Vector_impl" = type { %"struct.std::_Vector_base<unsigned char, std::allocator<unsigned char>>::_Vector_impl_data" }
%"struct.std::_Vector_base<unsigned char, std::allocator<unsigned char>>::_Vector_impl_data" = type { ptr, ptr, ptr }
%"class.net::QuicFixedUint32" = type <{ %"class.net::QuicConfigValue", i32, i8, [3 x i8], i32, i8, [3 x i8] }>
%"class.base::SmallMap" = type { i32, [4 x i8], %union.anon }
%union.anon = type { %"class.base::ManualConstructor.13" }
%"class.base::ManualConstructor.13" = type { %"class.base::AlignedMemory.14" }
%"class.base::AlignedMemory.14" = type { [56 x i8] }
%"class.base::SmallMap.15" = type { i32, [4 x i8], %union.anon.16 }
%union.anon.16 = type { [10 x %"class.base::ManualConstructor"] }
%"class.base::ManualConstructor" = type { %"class.base::AlignedMemory" }
%"class.base::AlignedMemory" = type { [16 x i8] }
%"class.std::unordered_set" = type { %"class.std::_Hashtable" }
%"class.std::_Hashtable" = type { ptr, i64, %"struct.std::__detail::_Hash_node_base", i64, %"struct.std::__detail::_Prime_rehash_policy", ptr }
%"struct.std::__detail::_Hash_node_base" = type { ptr }
%"struct.std::__detail::_Prime_rehash_policy" = type { float, i64 }
%"class.net::QuicWriteBlockedList" = type <{ %"class.net::PriorityWriteScheduler", [8 x i32], [8 x i32], i8, i8, i8, [5 x i8] }>
%"class.net::PriorityWriteScheduler" = type { %"class.net::WriteScheduler", i64, [8 x %"struct.net::PriorityWriteScheduler<unsigned int>::PriorityInfo"], %"class.std::unordered_map" }
%"class.net::WriteScheduler" = type { ptr }
%"struct.net::PriorityWriteScheduler<unsigned int>::PriorityInfo" = type { %"class.std::deque", i64 }
%"class.std::deque" = type { %"class.std::_Deque_base" }
%"class.std::_Deque_base" = type { %"struct.std::_Deque_base<net::PriorityWriteScheduler<unsigned int>::StreamInfo *, std::allocator<net::PriorityWriteScheduler<unsigned int>::StreamInfo *>>::_Deque_impl" }
%"struct.std::_Deque_base<net::PriorityWriteScheduler<unsigned int>::StreamInfo *, std::allocator<net::PriorityWriteScheduler<unsigned int>::StreamInfo *>>::_Deque_impl" = type { %"struct.std::_Deque_base<net::PriorityWriteScheduler<unsigned int>::StreamInfo *, std::allocator<net::PriorityWriteScheduler<unsigned int>::StreamInfo *>>::_Deque_impl_data" }
%"struct.std::_Deque_base<net::PriorityWriteScheduler<unsigned int>::StreamInfo *, std::allocator<net::PriorityWriteScheduler<unsigned int>::StreamInfo *>>::_Deque_impl_data" = type { ptr, i64, %"struct.std::_Deque_iterator", %"struct.std::_Deque_iterator" }
%"struct.std::_Deque_iterator" = type { ptr, ptr, ptr, ptr }
%"class.std::unordered_map" = type { %"class.std::_Hashtable.25" }
%"class.std::_Hashtable.25" = type { ptr, i64, %"struct.std::__detail::_Hash_node_base", i64, %"struct.std::__detail::_Prime_rehash_policy", ptr }
%"class.net::QuicFlowController" = type { ptr, i32, i32, i64, i64, i64, i64, i64, i64, i64, i8, i64, %"class.net::QuicTime" }
%"class.net::QuicTime" = type { i64 }
%"class.std::unique_ptr" = type { %"struct.std::__uniq_ptr_data" }
%"struct.std::__uniq_ptr_data" = type { %"class.std::__uniq_ptr_impl" }
%"class.std::__uniq_ptr_impl" = type { %"class.std::tuple" }
%"class.std::tuple" = type { %"struct.std::_Tuple_impl" }
%"struct.std::_Tuple_impl" = type { %"struct.std::_Head_base.39" }
%"struct.std::_Head_base.39" = type { ptr }
%"class.net::SpdyHeaderBlock" = type { %class.linked_hash_map, %"class.std::unique_ptr.95" }
%class.linked_hash_map = type { %"class.std::unordered_map.72", %"class.std::__cxx11::list.90" }
%"class.std::unordered_map.72" = type { %"class.std::_Hashtable.73" }
%"class.std::_Hashtable.73" = type { ptr, i64, %"struct.std::__detail::_Hash_node_base", i64, %"struct.std::__detail::_Prime_rehash_policy", ptr }
%"class.std::__cxx11::list.90" = type { %"class.std::__cxx11::_List_base.91" }
%"class.std::__cxx11::_List_base.91" = type { %"struct.std::__cxx11::_List_base<std::pair<base::BasicStringPiece<std::string>, base::BasicStringPiece<std::string>>, std::allocator<std::pair<base::BasicStringPiece<std::string>, base::BasicStringPiece<std::string>>>>::_List_impl" }
%"struct.std::__cxx11::_List_base<std::pair<base::BasicStringPiece<std::string>, base::BasicStringPiece<std::string>>, std::allocator<std::pair<base::BasicStringPiece<std::string>, base::BasicStringPiece<std::string>>>>::_List_impl" = type { %"struct.std::__detail::_List_node_header" }
%"struct.std::__detail::_List_node_header" = type { %"struct.std::__detail::_List_node_base", i64 }
%"struct.std::__detail::_List_node_base" = type { ptr, ptr }
%"class.std::unique_ptr.95" = type { %"struct.std::__uniq_ptr_data.96" }
%"struct.std::__uniq_ptr_data.96" = type { %"class.std::__uniq_ptr_impl.97" }
%"class.std::__uniq_ptr_impl.97" = type { %"class.std::tuple.98" }
%"class.std::tuple.98" = type { %"struct.std::_Tuple_impl.99" }
%"struct.std::_Tuple_impl.99" = type { %"struct.std::_Head_base.102" }
%"struct.std::_Head_base.102" = type { ptr }

; Function Attrs: mustprogress nounwind uwtable
define linkonce_odr noundef nonnull align 8 dereferenceable(8) ptr @_ZNSt10_Head_baseILm0EPN3net17QuicHeadersStreamELb0EE7_M_headERKS3_(ptr noundef nonnull align 8 dereferenceable(8) %0) #2 comdat align 2 {
  %2 = alloca ptr, align 8
  store ptr %0, ptr %2, align 8, !tbaa !178
  %3 = load ptr, ptr %2, align 8, !tbaa !178
  %4 = getelementptr inbounds nuw %"struct.std::_Head_base.39", ptr %3, i32 0, i32 0
  ret ptr %4
}

; Function Attrs: mustprogress nounwind uwtable
define linkonce_odr noundef nonnull align 8 dereferenceable(8) ptr @_ZNSt11_Tuple_implILm0EJPN3net17QuicHeadersStreamESt14default_deleteIS1_EEE7_M_headERKS5_(ptr noundef nonnull align 8 dereferenceable(8) %0) #2 comdat align 2 {
  %2 = alloca ptr, align 8
  store ptr %0, ptr %2, align 8, !tbaa !174
  %3 = load ptr, ptr %2, align 8, !tbaa !174
  %4 = call noundef nonnull align 8 dereferenceable(8) ptr @_ZNSt10_Head_baseILm0EPN3net17QuicHeadersStreamELb0EE7_M_headERKS3_(ptr noundef nonnull align 8 dereferenceable(8) %3) #16
  ret ptr %4
}

; Function Attrs: mustprogress nounwind uwtable
define linkonce_odr noundef nonnull align 8 dereferenceable(8) ptr @_ZSt12__get_helperILm0EPN3net17QuicHeadersStreamEJSt14default_deleteIS1_EEERKT0_RKSt11_Tuple_implIXT_EJS5_DpT1_EE(ptr noundef nonnull align 8 dereferenceable(8) %0) #2 comdat {
  %2 = alloca ptr, align 8
  store ptr %0, ptr %2, align 8, !tbaa !174
  %3 = load ptr, ptr %2, align 8, !tbaa !174
  %4 = call noundef nonnull align 8 dereferenceable(8) ptr @_ZNSt11_Tuple_implILm0EJPN3net17QuicHeadersStreamESt14default_deleteIS1_EEE7_M_headERKS5_(ptr noundef nonnull align 8 dereferenceable(8) %3) #16
  ret ptr %4
}

; Function Attrs: mustprogress nounwind uwtable
define linkonce_odr noundef nonnull align 8 dereferenceable(8) ptr @_ZSt3getILm0EJPN3net17QuicHeadersStreamESt14default_deleteIS1_EEERKNSt13tuple_elementIXT_ESt5tupleIJDpT0_EEE4typeERKS9_(ptr noundef nonnull align 8 dereferenceable(8) %0) #2 comdat {
  %2 = alloca ptr, align 8
  store ptr %0, ptr %2, align 8, !tbaa !172
  %3 = load ptr, ptr %2, align 8, !tbaa !172
  %4 = call noundef nonnull align 8 dereferenceable(8) ptr @_ZSt12__get_helperILm0EPN3net17QuicHeadersStreamEJSt14default_deleteIS1_EEERKT0_RKSt11_Tuple_implIXT_EJS5_DpT1_EE(ptr noundef nonnull align 8 dereferenceable(8) %3) #16
  ret ptr %4
}

; Function Attrs: mustprogress nounwind uwtable
define linkonce_odr noundef ptr @_ZNKSt15__uniq_ptr_implIN3net17QuicHeadersStreamESt14default_deleteIS1_EE6_M_ptrEv(ptr noundef nonnull align 8 dereferenceable(8) %0) #2 comdat align 2 {
  %2 = alloca ptr, align 8
  store ptr %0, ptr %2, align 8, !tbaa !170
  %3 = load ptr, ptr %2, align 8
  %4 = getelementptr inbounds nuw %"class.std::__uniq_ptr_impl", ptr %3, i32 0, i32 0
  %5 = call noundef nonnull align 8 dereferenceable(8) ptr @_ZSt3getILm0EJPN3net17QuicHeadersStreamESt14default_deleteIS1_EEERKNSt13tuple_elementIXT_ESt5tupleIJDpT0_EEE4typeERKS9_(ptr noundef nonnull align 8 dereferenceable(8) %4) #16
  %6 = load ptr, ptr %5, align 8, !tbaa !114
  ret ptr %6
}

; Function Attrs: mustprogress nounwind uwtable
define linkonce_odr noundef ptr @_ZNKSt10unique_ptrIN3net17QuicHeadersStreamESt14default_deleteIS1_EE3getEv(ptr noundef nonnull align 8 dereferenceable(8) %0) #2 comdat align 2 {
  %2 = alloca ptr, align 8
  store ptr %0, ptr %2, align 8, !tbaa !84
  %3 = load ptr, ptr %2, align 8
  %4 = getelementptr inbounds nuw %"class.std::unique_ptr", ptr %3, i32 0, i32 0
  %5 = call noundef ptr @_ZNKSt15__uniq_ptr_implIN3net17QuicHeadersStreamESt14default_deleteIS1_EE6_M_ptrEv(ptr noundef nonnull align 8 dereferenceable(8) %4) #16
  ret ptr %5
}

; Function Attrs: mustprogress nounwind uwtable
define linkonce_odr noundef ptr @_ZNKSt10unique_ptrIN3net17QuicHeadersStreamESt14default_deleteIS1_EEptEv(ptr noundef nonnull align 8 dereferenceable(8) %0) #2 comdat align 2 {
  %2 = alloca ptr, align 8
  store ptr %0, ptr %2, align 8, !tbaa !84
  %3 = load ptr, ptr %2, align 8
  %4 = call noundef ptr @_ZNKSt10unique_ptrIN3net17QuicHeadersStreamESt14default_deleteIS1_EE3getEv(ptr noundef nonnull align 8 dereferenceable(8) %3) #16
  ret ptr %4
}

; Function Attrs: mustprogress uwtable
define noundef i64 @_ZN3net15QuicSpdySession12WriteHeadersEjNS_15SpdyHeaderBlockEbhPNS_24QuicAckListenerInterfaceE(ptr noundef nonnull align 8 dereferenceable(2057) %0, i32 noundef %1, ptr noundef %2, i1 noundef zeroext %3, i8 noundef zeroext %4, ptr noundef %5) unnamed_addr #0 align 2 personality ptr @__gxx_personality_v0 {
  %7 = alloca ptr, align 8
  %8 = alloca i32, align 4
  %9 = alloca ptr, align 8
  %10 = alloca i8, align 1
  %11 = alloca i8, align 1
  %12 = alloca ptr, align 8
  %13 = alloca %"class.net::SpdyHeaderBlock", align 8
  %14 = alloca ptr, align 8
  %15 = alloca i32, align 4
  store ptr %0, ptr %7, align 8, !tbaa !3
  store i32 %1, ptr %8, align 4, !tbaa !115
  store ptr %2, ptr %9, align 8, !tbaa !143
  %16 = zext i1 %3 to i8
  store i8 %16, ptr %10, align 1, !tbaa !138
  store i8 %4, ptr %11, align 1, !tbaa !137
  store ptr %5, ptr %12, align 8, !tbaa !145
  %17 = load ptr, ptr %7, align 8
  %18 = getelementptr inbounds nuw %"class.net::QuicSpdySession", ptr %17, i32 0, i32 2
  %19 = call noundef ptr @_ZNKSt10unique_ptrIN3net17QuicHeadersStreamESt14default_deleteIS1_EEptEv(ptr noundef nonnull align 8 dereferenceable(8) %18) #16
  %20 = load i32, ptr %8, align 4, !tbaa !115
  call void @_ZN3net15SpdyHeaderBlockC1EOS0_(ptr noundef nonnull align 8 dereferenceable(88) %13, ptr noundef nonnull align 8 dereferenceable(88) %2)
  %21 = load i8, ptr %10, align 1, !tbaa !138, !range !139, !noundef !140
  %22 = trunc i8 %21 to i1
  %23 = load i8, ptr %11, align 1, !tbaa !137
  %24 = load ptr, ptr %12, align 8, !tbaa !145
  %25 = load ptr, ptr %19, align 8, !tbaa !12
  %26 = getelementptr inbounds ptr, ptr %25, i64 15
  %27 = load ptr, ptr %26, align 8
  %28 = invoke noundef i64 %27(ptr noundef nonnull align 8 dereferenceable(816) %19, i32 noundef %20, ptr noundef %13, i1 noundef zeroext %22, i8 noundef zeroext %23, ptr noundef %24)
          to label %29 unwind label %30

29:                                               ; preds = %6
  call void @_ZN3net15SpdyHeaderBlockD1Ev(ptr noundef nonnull align 8 dereferenceable(88) %13) #16
  ret i64 %28

30:                                               ; preds = %6
  %31 = landingpad { ptr, i32 }
          cleanup
  %32 = extractvalue { ptr, i32 } %31, 0
  store ptr %32, ptr %14, align 8
  %33 = extractvalue { ptr, i32 } %31, 1
  store i32 %33, ptr %15, align 4
  call void @_ZN3net15SpdyHeaderBlockD1Ev(ptr noundef nonnull align 8 dereferenceable(88) %13) #16
  br label %34

34:                                               ; preds = %30
  %35 = load ptr, ptr %14, align 8
  %36 = load i32, ptr %15, align 4
  %37 = insertvalue { ptr, i32 } poison, ptr %35, 0
  %38 = insertvalue { ptr, i32 } %37, i32 %36, 1
  resume { ptr, i32 } %38
}