; Function Attrs: mustprogress uwtable
define noundef i64 @_ZN3net15QuicSpdySession12WriteHeadersEjNS_15SpdyHeaderBlockEbhPNS_24QuicAckListenerInterfaceE(ptr noundef nonnull readonly align 8 captures(none) dereferenceable(2057) %0, i32 noundef %1, ptr noundef nonnull %2, i1 noundef zeroext %3, i8 noundef zeroext %4, ptr noundef %5) unnamed_addr #0 align 2 personality ptr @__gxx_personality_v0 {
  %7 = alloca %"class.net::SpdyHeaderBlock", align 8
  %8 = getelementptr inbounds nuw i8, ptr %0, i64 2048
  %9 = load ptr, ptr %8, align 8, !tbaa !87
  call void @_ZN3net15SpdyHeaderBlockC1EOS0_(ptr noundef nonnull align 8 dereferenceable(88) %7, ptr noundef nonnull align 8 dereferenceable(88) %2)
  %10 = load ptr, ptr %9, align 8, !tbaa !3
  %11 = getelementptr inbounds nuw i8, ptr %10, i64 120
  %12 = load ptr, ptr %11, align 8
  %13 = invoke noundef i64 %12(ptr noundef nonnull align 8 dereferenceable(816) %9, i32 noundef %1, ptr noundef nonnull %7, i1 noundef zeroext %3, i8 noundef zeroext %4, ptr noundef %5)
          to label %14 unwind label %15

14:                                               ; preds = %6
  call void @_ZN3net15SpdyHeaderBlockD1Ev(ptr noundef nonnull align 8 dereferenceable(88) %7) #18
  ret i64 %13

15:                                               ; preds = %6
  %16 = landingpad { ptr, i32 }
          cleanup
  call void @_ZN3net15SpdyHeaderBlockD1Ev(ptr noundef nonnull align 8 dereferenceable(88) %7) #18
  resume { ptr, i32 } %16
}